target datalayout = "e-m:e-p270:32:32-p271:32:32-p272:64:64-i64:64-i128:128-f80:128-n8:16:32:64-S128"
target triple = "x86_64-unknown-linux-gnu"

@.str.16 = private unnamed_addr constant [20 x i8] c"creating socket: %s\00", align 1
@.str.17 = private unnamed_addr constant [28 x i8] c"setsockopt SO_REUSEADDR: %s\00", align 1

; Function Attrs: nounwind uwtable
define internal i32 @anetSetReuseAddr(ptr noundef %err, i32 noundef %fd) #0 {
entry:
  %retval = alloca i32, align 4
  %err.addr = alloca ptr, align 8
  %fd.addr = alloca i32, align 4
  %yes = alloca i32, align 4
  store ptr %err, ptr %err.addr, align 8
  store i32 %fd, ptr %fd.addr, align 4
  store i32 1, ptr %yes, align 4
  %0 = load i32, ptr %fd.addr, align 4
  %call = call i32 @setsockopt(i32 noundef %0, i32 noundef 1, i32 noundef 2, ptr noundef %yes, i32 noundef 4) #7
  %cmp = icmp eq i32 %call, -1
  br i1 %cmp, label %if.then, label %if.end

if.then:                                          ; preds = %entry
  %1 = load ptr, ptr %err.addr, align 8
  %call1 = call ptr @__errno_location() #8
  %2 = load i32, ptr %call1, align 4
  %call2 = call ptr @strerror(i32 noundef %2) #7
  call void (ptr, ptr, ...) @anetSetError(ptr noundef %1, ptr noundef @.str.17, ptr noundef %call2)
  store i32 -1, ptr %retval, align 4
  br label %return

if.end:                                           ; preds = %entry
  store i32 0, ptr %retval, align 4
  br label %return

return:                                           ; preds = %if.end, %if.then
  %3 = load i32, ptr %retval, align 4
  ret i32 %3
}

; Function Attrs: nounwind uwtable
define internal i32 @anetCreateSocket(ptr noundef %err, i32 noundef %domain) #0 {
entry:
  %retval = alloca i32, align 4
  %err.addr = alloca ptr, align 8
  %domain.addr = alloca i32, align 4
  %s = alloca i32, align 4
  store ptr %err, ptr %err.addr, align 8
  store i32 %domain, ptr %domain.addr, align 4
  %0 = load i32, ptr %domain.addr, align 4
  %call = call i32 @socket(i32 noundef %0, i32 noundef 1, i32 noundef 0) #7
  store i32 %call, ptr %s, align 4
  %cmp = icmp eq i32 %call, -1
  br i1 %cmp, label %if.then, label %if.end

if.then:                                          ; preds = %entry
  %1 = load ptr, ptr %err.addr, align 8
  %call1 = call ptr @__errno_location() #8
  %2 = load i32, ptr %call1, align 4
  %call2 = call ptr @strerror(i32 noundef %2) #7
  call void (ptr, ptr, ...) @anetSetError(ptr noundef %1, ptr noundef @.str.16, ptr noundef %call2)
  store i32 -1, ptr %retval, align 4
  br label %return

if.end:                                           ; preds = %entry
  %3 = load ptr, ptr %err.addr, align 8
  %4 = load i32, ptr %s, align 4
  %call3 = call i32 @anetSetReuseAddr(ptr noundef %3, i32 noundef %4)
  %cmp4 = icmp eq i32 %call3, -1
  br i1 %cmp4, label %if.then5, label %if.end7

if.then5:                                         ; preds = %if.end
  %5 = load i32, ptr %s, align 4
  %call6 = call i32 @close(i32 noundef %5)
  store i32 -1, ptr %retval, align 4
  br label %return

if.end7:                                          ; preds = %if.end
  %6 = load i32, ptr %s, align 4
  store i32 %6, ptr %retval, align 4
  br label %return

return:                                           ; preds = %if.end7, %if.then5, %if.then
  %7 = load i32, ptr %retval, align 4
  ret i32 %7
}