; Function Attrs: nounwind uwtable
define internal fastcc i32 @anetCreateSocket(ptr noundef %err) unnamed_addr #0 {
entry:
  %yes.i = alloca i32, align 4
  %call = tail call i32 @socket(i32 noundef 1, i32 noundef 1, i32 noundef 0) #10
  %cmp = icmp eq i32 %call, -1
  br i1 %cmp, label %if.then, label %if.end

if.then:                                          ; preds = %entry
  %call1 = tail call ptr @__errno_location() #11
  %0 = load i32, ptr %call1, align 4
  %call2 = tail call ptr @strerror(i32 noundef %0) #10
  tail call void (ptr, ptr, ...) @anetSetError(ptr noundef %err, ptr noundef nonnull @.str.16, ptr noundef %call2)
  br label %return

if.end:                                           ; preds = %entry
  call void @llvm.lifetime.start.p0(i64 4, ptr nonnull %yes.i)
  store i32 1, ptr %yes.i, align 4
  %call.i = call i32 @setsockopt(i32 noundef %call, i32 noundef 1, i32 noundef 2, ptr noundef nonnull %yes.i, i32 noundef 4) #10
  %cmp.i = icmp eq i32 %call.i, -1
  br i1 %cmp.i, label %if.then5, label %anetSetReuseAddr.exit

anetSetReuseAddr.exit:                            ; preds = %if.end
  call void @llvm.lifetime.end.p0(i64 4, ptr nonnull %yes.i)
  br label %return

if.then5:                                         ; preds = %if.end
  %call1.i = tail call ptr @__errno_location() #11
  %1 = load i32, ptr %call1.i, align 4
  %call2.i = call ptr @strerror(i32 noundef %1) #10
  call void (ptr, ptr, ...) @anetSetError(ptr noundef %err, ptr noundef nonnull @.str.17, ptr noundef %call2.i)
  call void @llvm.lifetime.end.p0(i64 4, ptr nonnull %yes.i)
  %call6 = call i32 @close(i32 noundef %call) #10
  br label %return

return:                                           ; preds = %anetSetReuseAddr.exit, %if.then5, %if.then
  %retval.0 = phi i32 [ -1, %if.then ], [ -1, %if.then5 ], [ %call, %anetSetReuseAddr.exit ]
  ret i32 %retval.0
}